target datalayout = "e-m:e-p270:32:32-p271:32:32-p272:64:64-i64:64-i128:128-f80:128-n8:16:32:64-S128"
target triple = "x86_64-pc-linux-gnu"

%struct.TuplesortPublic = type { ptr, ptr, ptr, ptr, ptr, ptr, ptr, ptr, ptr, i8, i32, ptr, ptr, i32, i8, ptr }
%struct.SortTuple = type { ptr, i64, i8, i32 }
%struct.TuplesortClusterArg = type { ptr, ptr, ptr }
%struct.IndexInfo = type { i32, i32, i32, [32 x i16], ptr, ptr, ptr, ptr, ptr, ptr, ptr, ptr, ptr, ptr, i8, i8, i8, i8, i8, i8, i8, i8, i8, i32, i32, ptr, ptr }

; Function Attrs: nounwind uwtable
define internal void @removeabbrev_cluster(ptr noundef %0, ptr noundef %1, i32 noundef %2) #0 {
  %4 = alloca ptr, align 8
  %5 = alloca ptr, align 8
  %6 = alloca i32, align 4
  %7 = alloca i32, align 4
  %8 = alloca ptr, align 8
  %9 = alloca ptr, align 8
  %10 = alloca ptr, align 8
  store ptr %0, ptr %4, align 8
  store ptr %1, ptr %5, align 8
  store i32 %2, ptr %6, align 4
  call void @llvm.lifetime.start.p0(i64 4, ptr %7) #6
  call void @llvm.lifetime.start.p0(i64 8, ptr %8) #6
  %11 = load ptr, ptr %4, align 8
  store ptr %11, ptr %8, align 8
  call void @llvm.lifetime.start.p0(i64 8, ptr %9) #6
  %12 = load ptr, ptr %8, align 8
  %13 = getelementptr inbounds nuw %struct.TuplesortPublic, ptr %12, i32 0, i32 15
  %14 = load ptr, ptr %13, align 8
  store ptr %14, ptr %9, align 8
  store i32 0, ptr %7, align 4
  br label %15

15:                                               ; preds = %48, %3
  %16 = load i32, ptr %7, align 4
  %17 = load i32, ptr %6, align 4
  %18 = icmp slt i32 %16, %17
  br i1 %18, label %19, label %51

19:                                               ; preds = %15
  call void @llvm.lifetime.start.p0(i64 8, ptr %10) #6
  %20 = load ptr, ptr %5, align 8
  %21 = load i32, ptr %7, align 4
  %22 = sext i32 %21 to i64
  %23 = getelementptr inbounds %struct.SortTuple, ptr %20, i64 %22
  %24 = getelementptr inbounds nuw %struct.SortTuple, ptr %23, i32 0, i32 0
  %25 = load ptr, ptr %24, align 8
  store ptr %25, ptr %10, align 8
  %26 = load ptr, ptr %10, align 8
  %27 = load ptr, ptr %9, align 8
  %28 = getelementptr inbounds nuw %struct.TuplesortClusterArg, ptr %27, i32 0, i32 1
  %29 = load ptr, ptr %28, align 8
  %30 = getelementptr inbounds nuw %struct.IndexInfo, ptr %29, i32 0, i32 3
  %31 = getelementptr inbounds [32 x i16], ptr %30, i64 0, i64 0
  %32 = load i16, ptr %31, align 4
  %33 = sext i16 %32 to i32
  %34 = load ptr, ptr %9, align 8
  %35 = getelementptr inbounds nuw %struct.TuplesortClusterArg, ptr %34, i32 0, i32 0
  %36 = load ptr, ptr %35, align 8
  %37 = load ptr, ptr %5, align 8
  %38 = load i32, ptr %7, align 4
  %39 = sext i32 %38 to i64
  %40 = getelementptr inbounds %struct.SortTuple, ptr %37, i64 %39
  %41 = getelementptr inbounds nuw %struct.SortTuple, ptr %40, i32 0, i32 2
  %42 = call i64 @heap_getattr(ptr noundef %26, i32 noundef %33, ptr noundef %36, ptr noundef %41)
  %43 = load ptr, ptr %5, align 8
  %44 = load i32, ptr %7, align 4
  %45 = sext i32 %44 to i64
  %46 = getelementptr inbounds %struct.SortTuple, ptr %43, i64 %45
  %47 = getelementptr inbounds nuw %struct.SortTuple, ptr %46, i32 0, i32 1
  store i64 %42, ptr %47, align 8
  call void @llvm.lifetime.end.p0(i64 8, ptr %10) #6
  br label %48

48:                                               ; preds = %19
  %49 = load i32, ptr %7, align 4
  %50 = add i32 %49, 1
  store i32 %50, ptr %7, align 4
  br label %15, !llvm.loop !11

51:                                               ; preds = %15
  call void @llvm.lifetime.end.p0(i64 8, ptr %9) #6
  call void @llvm.lifetime.end.p0(i64 8, ptr %8) #6
  call void @llvm.lifetime.end.p0(i64 4, ptr %7) #6
  ret void
}