; Function Attrs: nounwind uwtable
define internal void @removeabbrev_cluster(ptr noundef readonly captures(none) %0, ptr noundef %1, i32 noundef %2) #0 {
  %4 = getelementptr inbounds nuw i8, ptr %0, i64 104
  %5 = load ptr, ptr %4, align 8
  %6 = icmp sgt i32 %2, 0
  br i1 %6, label %.lr.ph, label %._crit_edge

.lr.ph:                                           ; preds = %3
  %7 = getelementptr inbounds nuw i8, ptr %5, i64 8
  %wide.trip.count = zext nneg i32 %2 to i64
  br label %8

8:                                                ; preds = %.lr.ph, %8
  %indvars.iv = phi i64 [ 0, %.lr.ph ], [ %indvars.iv.next, %8 ]
  %9 = getelementptr inbounds nuw %struct.SortTuple, ptr %1, i64 %indvars.iv
  %10 = load ptr, ptr %9, align 8
  %11 = load ptr, ptr %7, align 8
  %12 = getelementptr inbounds nuw i8, ptr %11, i64 12
  %13 = load i16, ptr %12, align 4
  %14 = sext i16 %13 to i32
  %15 = load ptr, ptr %5, align 8
  %16 = getelementptr inbounds nuw i8, ptr %9, i64 16
  %17 = tail call fastcc i64 @heap_getattr(ptr noundef %10, i32 noundef %14, ptr noundef %15, ptr noundef nonnull %16)
  %18 = getelementptr inbounds nuw i8, ptr %9, i64 8
  store i64 %17, ptr %18, align 8
  %indvars.iv.next = add nuw nsw i64 %indvars.iv, 1
  %exitcond.not = icmp eq i64 %indvars.iv.next, %wide.trip.count
  br i1 %exitcond.not, label %._crit_edge, label %8, !llvm.loop !11

._crit_edge:                                      ; preds = %8, %3
  ret void
}